target datalayout = "e-m:e-p270:32:32-p271:32:32-p272:64:64-i64:64-i128:128-f80:128-n8:16:32:64-S128"
target triple = "x86_64-pc-linux-gnu"

%struct._zend_executor_globals = type { %struct._zval_struct, %struct._zval_struct, [32 x ptr], ptr, ptr, %struct._zend_array, %struct._zend_array, ptr, i32, i32, ptr, ptr, ptr, ptr, ptr, ptr, i64, ptr, ptr, i32, i32, i64, i32, i32, i32, i8, i8, %struct.zend_atomic_bool_s, %struct.zend_atomic_bool_s, ptr, i64, ptr, ptr, %struct._zend_array, %struct._zend_array, i32, i8, %struct._zval_struct, %struct._zval_struct, %struct._zend_stack, %struct._zend_stack, %struct._zend_stack, ptr, i32, i32, i64, ptr, ptr, ptr, %struct._zend_objects_store, ptr, ptr, ptr, [3 x %struct._zend_op], ptr, i8, i8, i64, i32, i32, ptr, [16 x %struct._HashTableIterator], ptr, %union._zend_function, %struct._zend_op, %struct._zend_array, i64, %struct.zend_get_gc_buffer, ptr, ptr, ptr, i64, i8, i32, ptr, ptr, i64, %struct._zend_call_stack, i64, i64, [6 x ptr] }
%struct.zend_atomic_bool_s = type { i8 }
%struct._zval_struct = type { %union._zend_value, %union.anon, %union.anon.2 }
%union._zend_value = type { i64 }
%union.anon = type { i32 }
%union.anon.2 = type { i32 }
%struct._zend_stack = type { i32, i32, i32, ptr }
%struct._zend_objects_store = type { ptr, i32, i32, i32 }
%struct._HashTableIterator = type { ptr, i32, i32 }
%union._zend_function = type { %struct._zend_op_array }
%struct._zend_op_array = type { i8, [3 x i8], i32, ptr, ptr, ptr, i32, i32, ptr, ptr, ptr, ptr, i32, i32, i32, i32, ptr, ptr, ptr, ptr, ptr, i32, i32, ptr, ptr, ptr, i32, i32, i32, i32, ptr, ptr, [6 x ptr] }
%struct._zend_op = type { ptr, %union._znode_op, %union._znode_op, %union._znode_op, i32, i32, i8, i8, i8, i8 }
%union._znode_op = type { i32 }
%struct._zend_array = type { %struct._zend_refcounted_h, %union.anon.4, i32, %union.anon.6, i32, i32, i32, i32, i64, ptr }
%struct._zend_refcounted_h = type { i32, %union.anon.3 }
%union.anon.3 = type { i32 }
%union.anon.4 = type { i32 }
%union.anon.6 = type { ptr }
%struct.zend_get_gc_buffer = type { ptr, ptr, ptr }
%struct._zend_call_stack = type { ptr, i64 }
%struct._zend_execute_data = type { ptr, ptr, ptr, ptr, %struct._zval_struct, ptr, ptr, ptr, ptr }
%struct._php_stream = type { ptr, ptr, %struct._php_stream_filter_chain, %struct._php_stream_filter_chain, ptr, ptr, %struct._zval_struct, i16, [16 x i8], i32, ptr, ptr, ptr, ptr, i64, ptr, i64, i64, i64, i64, ptr }
%struct._php_stream_filter_chain = type { ptr, ptr, ptr }
%struct._zend_string = type { %struct._zend_refcounted_h, i64, i64, [1 x i8] }
%struct._php_stream_wrapper = type { ptr, ptr, i32 }

@.str.6 = private unnamed_addr constant [7 x i8] c"stream\00", align 1
@executor_globals = external global %struct._zend_executor_globals, align 8

; Function Attrs: nounwind uwtable
define hidden void @zif_stream_is_local(ptr noundef %0, ptr noundef %1) #0 {
  %3 = alloca ptr, align 8
  %4 = alloca i1, align 1
  %5 = alloca ptr, align 8
  %6 = alloca ptr, align 8
  %7 = alloca ptr, align 8
  %8 = alloca ptr, align 8
  %9 = alloca ptr, align 8
  %10 = alloca i8, align 1
  %11 = alloca ptr, align 8
  %12 = alloca ptr, align 8
  %13 = alloca ptr, align 8
  %14 = alloca ptr, align 8
  %15 = alloca ptr, align 8
  %16 = alloca i32, align 4
  %17 = alloca i32, align 4
  %18 = alloca i32, align 4
  %19 = alloca i32, align 4
  %20 = alloca i32, align 4
  %21 = alloca ptr, align 8
  %22 = alloca ptr, align 8
  %23 = alloca i32, align 4
  %24 = alloca ptr, align 8
  %25 = alloca i8, align 1
  %26 = alloca i8, align 1
  %27 = alloca i32, align 4
  store ptr %0, ptr %11, align 8
  store ptr %1, ptr %12, align 8
  store ptr null, ptr %14, align 8
  store ptr null, ptr %15, align 8
  br label %28

28:                                               ; preds = %2
  store i32 0, ptr %16, align 4
  store i32 1, ptr %17, align 4
  store i32 1, ptr %18, align 4
  %29 = load ptr, ptr %11, align 8
  %30 = getelementptr inbounds %struct._zend_execute_data, ptr %29, i32 0, i32 4
  %31 = getelementptr inbounds %struct._zval_struct, ptr %30, i32 0, i32 2
  %32 = load i32, ptr %31, align 4
  store i32 %32, ptr %19, align 4
  store i32 0, ptr %20, align 4
  store ptr null, ptr %22, align 8
  store i32 0, ptr %23, align 4
  store ptr null, ptr %24, align 8
  store i8 0, ptr %25, align 1
  store i8 0, ptr %26, align 1
  store i32 0, ptr %27, align 4
  br label %33

33:                                               ; preds = %28
  %34 = load i32, ptr %19, align 4
  %35 = load i32, ptr %17, align 4
  %36 = icmp ult i32 %34, %35
  %37 = xor i1 %36, true
  %38 = xor i1 %37, true
  %39 = zext i1 %38 to i32
  %40 = sext i32 %39 to i64
  %41 = icmp ne i64 %40, 0
  br i1 %41, label %51, label %42

42:                                               ; preds = %33
  %43 = load i32, ptr %19, align 4
  %44 = load i32, ptr %18, align 4
  %45 = icmp ugt i32 %43, %44
  %46 = xor i1 %45, true
  %47 = xor i1 %46, true
  %48 = zext i1 %47 to i32
  %49 = sext i32 %48 to i64
  %50 = icmp ne i64 %49, 0
  br i1 %50, label %51, label %54

51:                                               ; preds = %42, %33
  %52 = load i32, ptr %17, align 4
  %53 = load i32, ptr %18, align 4
  call void @zend_wrong_parameters_count_error(i32 noundef %52, i32 noundef %53)
  store i32 1, ptr %27, align 4
  br label %120

54:                                               ; preds = %42
  %55 = load ptr, ptr %11, align 8
  %56 = getelementptr inbounds %struct._zval_struct, ptr %55, i64 4
  store ptr %56, ptr %21, align 8
  %57 = load i32, ptr %20, align 4
  %58 = add i32 %57, 1
  store i32 %58, ptr %20, align 4
  %59 = load i32, ptr %20, align 4
  %60 = load i32, ptr %17, align 4
  %61 = icmp ule i32 %59, %60
  br i1 %61, label %67, label %62

62:                                               ; preds = %54
  %63 = load i8, ptr %26, align 1
  %64 = trunc i8 %63 to i1
  %65 = zext i1 %64 to i32
  %66 = icmp eq i32 %65, 1
  br label %67

67:                                               ; preds = %62, %54
  %68 = phi i1 [ true, %54 ], [ %66, %62 ]
  call void @llvm.assume(i1 %68)
  %69 = load i32, ptr %20, align 4
  %70 = load i32, ptr %17, align 4
  %71 = icmp ugt i32 %69, %70
  br i1 %71, label %77, label %72

72:                                               ; preds = %67
  %73 = load i8, ptr %26, align 1
  %74 = trunc i8 %73 to i1
  %75 = zext i1 %74 to i32
  %76 = icmp eq i32 %75, 0
  br label %77

77:                                               ; preds = %72, %67
  %78 = phi i1 [ true, %67 ], [ %76, %72 ]
  call void @llvm.assume(i1 %78)
  %79 = load i8, ptr %26, align 1
  %80 = trunc i8 %79 to i1
  br i1 %80, label %81, label %92

81:                                               ; preds = %77
  %82 = load i32, ptr %20, align 4
  %83 = load i32, ptr %19, align 4
  %84 = icmp ugt i32 %82, %83
  %85 = xor i1 %84, true
  %86 = xor i1 %85, true
  %87 = zext i1 %86 to i32
  %88 = sext i32 %87 to i64
  %89 = icmp ne i64 %88, 0
  br i1 %89, label %90, label %91

90:                                               ; preds = %81
  br label %120

91:                                               ; preds = %81
  br label %92

92:                                               ; preds = %91, %77
  %93 = load ptr, ptr %21, align 8
  %94 = getelementptr inbounds %struct._zval_struct, ptr %93, i32 1
  store ptr %94, ptr %21, align 8
  %95 = load ptr, ptr %21, align 8
  store ptr %95, ptr %22, align 8
  %96 = load ptr, ptr %22, align 8
  store ptr %96, ptr %8, align 8
  store ptr %13, ptr %9, align 8
  store i8 0, ptr %10, align 1
  %97 = load i8, ptr %10, align 1
  %98 = trunc i8 %97 to i1
  br i1 %98, label %99, label %107

99:                                               ; preds = %92
  %100 = load ptr, ptr %8, align 8
  store ptr %100, ptr %7, align 8
  %101 = load ptr, ptr %7, align 8
  %102 = getelementptr inbounds %struct._zval_struct, ptr %101, i32 0, i32 1
  %103 = load i8, ptr %102, align 8
  %104 = zext i8 %103 to i32
  %105 = icmp eq i32 %104, 1
  br i1 %105, label %106, label %107

106:                                              ; preds = %99
  br label %109

107:                                              ; preds = %99, %92
  %108 = load ptr, ptr %8, align 8
  br label %109

109:                                              ; preds = %107, %106
  %110 = phi ptr [ null, %106 ], [ %108, %107 ]
  %111 = load ptr, ptr %9, align 8
  store ptr %110, ptr %111, align 8
  %112 = load i32, ptr %20, align 4
  %113 = load i32, ptr %18, align 4
  %114 = icmp eq i32 %112, %113
  br i1 %114, label %118, label %115

115:                                              ; preds = %109
  %116 = load i32, ptr %18, align 4
  %117 = icmp eq i32 %116, -1
  br label %118

118:                                              ; preds = %115, %109
  %119 = phi i1 [ true, %109 ], [ %117, %115 ]
  call void @llvm.assume(i1 %119)
  br label %120

120:                                              ; preds = %118, %90, %51
  %121 = load i32, ptr %27, align 4
  %122 = icmp ne i32 %121, 0
  %123 = xor i1 %122, true
  %124 = xor i1 %123, true
  %125 = zext i1 %124 to i32
  %126 = sext i32 %125 to i64
  %127 = icmp ne i64 %126, 0
  br i1 %127, label %128, label %134

128:                                              ; preds = %120
  %129 = load i32, ptr %27, align 4
  %130 = load i32, ptr %20, align 4
  %131 = load ptr, ptr %24, align 8
  %132 = load i32, ptr %23, align 4
  %133 = load ptr, ptr %22, align 8
  call void @zend_wrong_parameter_error(i32 noundef %129, i32 noundef %130, ptr noundef %131, i32 noundef %132, ptr noundef %133)
  br label %202

134:                                              ; preds = %120
  br label %135

135:                                              ; preds = %134
  %136 = load ptr, ptr %13, align 8
  store ptr %136, ptr %6, align 8
  %137 = load ptr, ptr %6, align 8
  %138 = getelementptr inbounds %struct._zval_struct, ptr %137, i32 0, i32 1
  %139 = load i8, ptr %138, align 8
  %140 = zext i8 %139 to i32
  %141 = icmp eq i32 %140, 9
  br i1 %141, label %142, label %155

142:                                              ; preds = %135
  br label %143

143:                                              ; preds = %142
  %144 = load ptr, ptr %13, align 8
  %145 = call i32 @php_file_le_stream()
  %146 = call i32 @php_file_le_pstream()
  %147 = call ptr @zend_fetch_resource2_ex(ptr noundef %144, ptr noundef @.str.6, i32 noundef %145, i32 noundef %146)
  store ptr %147, ptr %14, align 8
  %148 = icmp eq ptr %147, null
  br i1 %148, label %149, label %150

149:                                              ; preds = %143
  br label %202

150:                                              ; preds = %143
  br label %151

151:                                              ; preds = %150
  %152 = load ptr, ptr %14, align 8
  %153 = getelementptr inbounds %struct._php_stream, ptr %152, i32 0, i32 4
  %154 = load ptr, ptr %153, align 8
  store ptr %154, ptr %15, align 8
  br label %181

155:                                              ; preds = %135
  %156 = load ptr, ptr %13, align 8
  store ptr %156, ptr %5, align 8
  %157 = load ptr, ptr %5, align 8
  store ptr %157, ptr %3, align 8
  %158 = load ptr, ptr %3, align 8
  %159 = getelementptr inbounds %struct._zval_struct, ptr %158, i32 0, i32 1
  %160 = load i8, ptr %159, align 8
  %161 = zext i8 %160 to i32
  %162 = icmp eq i32 %161, 6
  br i1 %162, label %163, label %164

163:                                              ; preds = %155
  store i1 true, ptr %4, align 1
  br label %167

164:                                              ; preds = %155
  %165 = load ptr, ptr %5, align 8
  %166 = call zeroext i1 @_try_convert_to_string(ptr noundef %165) #9
  store i1 %166, ptr %4, align 1
  br label %167

167:                                              ; preds = %164, %163
  %168 = load i1, ptr %4, align 1
  br i1 %168, label %174, label %169

169:                                              ; preds = %167
  br label %170

170:                                              ; preds = %169
  %171 = load ptr, ptr getelementptr inbounds (%struct._zend_executor_globals, ptr @executor_globals, i32 0, i32 50), align 8
  %172 = icmp ne ptr %171, null
  call void @llvm.assume(i1 %172)
  br label %202

173:                                              ; No predecessors!
  br label %174

174:                                              ; preds = %173, %167
  %175 = load ptr, ptr %13, align 8
  %176 = getelementptr inbounds %struct._zval_struct, ptr %175, i32 0, i32 0
  %177 = load ptr, ptr %176, align 8
  %178 = getelementptr inbounds %struct._zend_string, ptr %177, i32 0, i32 3
  %179 = getelementptr inbounds [1 x i8], ptr %178, i64 0, i64 0
  %180 = call ptr @php_stream_locate_url_wrapper(ptr noundef %179, ptr noundef null, i32 noundef 0)
  store ptr %180, ptr %15, align 8
  br label %181

181:                                              ; preds = %174, %151
  %182 = load ptr, ptr %15, align 8
  %183 = icmp ne ptr %182, null
  br i1 %183, label %191, label %184

184:                                              ; preds = %181
  br label %185

185:                                              ; preds = %184
  br label %186

186:                                              ; preds = %185
  %187 = load ptr, ptr %12, align 8
  %188 = getelementptr inbounds %struct._zval_struct, ptr %187, i32 0, i32 1
  store i32 2, ptr %188, align 8
  br label %189

189:                                              ; preds = %186
  br label %202

190:                                              ; No predecessors!
  br label %191

191:                                              ; preds = %190, %181
  br label %192

192:                                              ; preds = %191
  br label %193

193:                                              ; preds = %192
  %194 = load ptr, ptr %15, align 8
  %195 = getelementptr inbounds %struct._php_stream_wrapper, ptr %194, i32 0, i32 2
  %196 = load i32, ptr %195, align 8
  %197 = icmp eq i32 %196, 0
  %198 = select i1 %197, i32 3, i32 2
  %199 = load ptr, ptr %12, align 8
  %200 = getelementptr inbounds %struct._zval_struct, ptr %199, i32 0, i32 1
  store i32 %198, ptr %200, align 8
  br label %201

201:                                              ; preds = %193
  br label %202

202:                                              ; preds = %201, %189, %170, %149, %128
  ret void
}