; Function Attrs: nounwind uwtable
define hidden void @zif_stream_is_local(ptr noundef %0, ptr nocapture noundef writeonly %1) local_unnamed_addr #0 {
  %3 = getelementptr inbounds i8, ptr %0, i64 44
  %4 = load i32, ptr %3, align 4
  %cond = icmp eq i32 %4, 1
  br i1 %cond, label %6, label %5

5:                                                ; preds = %2
  tail call void @zend_wrong_parameters_count_error(i32 noundef 1, i32 noundef 1) #10
  tail call void @zend_wrong_parameter_error(i32 noundef 1, i32 noundef 0, ptr noundef null, i32 noundef 0, ptr noundef null) #10
  br label %35

6:                                                ; preds = %2
  %7 = getelementptr inbounds i8, ptr %0, i64 80
  %8 = getelementptr inbounds i8, ptr %0, i64 88
  %9 = load i8, ptr %8, align 8
  switch i8 %9, label %18 [
    i8 9, label %10
    i8 6, label %.critedge
  ]

10:                                               ; preds = %6
  %11 = tail call i32 @php_file_le_stream() #10
  %12 = tail call i32 @php_file_le_pstream() #10
  %13 = tail call ptr @zend_fetch_resource2_ex(ptr noundef nonnull %7, ptr noundef nonnull @.str.6, i32 noundef %11, i32 noundef %12) #10
  %14 = icmp eq ptr %13, null
  br i1 %14, label %35, label %15

15:                                               ; preds = %10
  %16 = getelementptr inbounds i8, ptr %13, i64 64
  %17 = load ptr, ptr %16, align 8
  br label %26

18:                                               ; preds = %6
  %19 = tail call zeroext i1 @_try_convert_to_string(ptr noundef nonnull %7) #10
  br i1 %19, label %.critedge, label %20

20:                                               ; preds = %18
  %21 = load ptr, ptr getelementptr inbounds (%struct._zend_executor_globals, ptr @executor_globals, i64 0, i32 50), align 8
  %22 = icmp ne ptr %21, null
  tail call void @llvm.assume(i1 %22)
  br label %35

.critedge:                                        ; preds = %6, %18
  %23 = load ptr, ptr %7, align 8
  %24 = getelementptr inbounds i8, ptr %23, i64 24
  %25 = tail call ptr @php_stream_locate_url_wrapper(ptr noundef nonnull %24, ptr noundef null, i32 noundef 0) #10
  br label %26

26:                                               ; preds = %.critedge, %15
  %.045 = phi ptr [ %17, %15 ], [ %25, %.critedge ]
  %.not56 = icmp eq ptr %.045, null
  br i1 %.not56, label %27, label %29

27:                                               ; preds = %26
  %28 = getelementptr inbounds i8, ptr %1, i64 8
  store i32 2, ptr %28, align 8
  br label %35

29:                                               ; preds = %26
  %30 = getelementptr inbounds i8, ptr %.045, i64 16
  %31 = load i32, ptr %30, align 8
  %32 = icmp eq i32 %31, 0
  %33 = select i1 %32, i32 3, i32 2
  %34 = getelementptr inbounds i8, ptr %1, i64 8
  store i32 %33, ptr %34, align 8
  br label %35

35:                                               ; preds = %10, %29, %27, %20, %5
  ret void
}